target datalayout = "e-m:e-p270:32:32-p271:32:32-p272:64:64-i64:64-i128:128-f80:128-n8:16:32:64-S128"
target triple = "x86_64-pc-linux-gnu"

%struct.mbedtls_asn1_buf = type { i32, i64, ptr }

@.str = private unnamed_addr constant [122 x i8] c"generated/home/dtcxzyw/WorkSpace/Projects/compilers/llvm-opt-benchmark/bench/lief/bench_build/mbed_src/library/x509_crl.c\00", align 1

; Function Attrs: inlinehint nounwind uwtable
define internal i32 @mbedtls_error_add(i32 noundef %0, i32 noundef %1, ptr noundef %2, i32 noundef %3) #6 {
  %5 = alloca i32, align 4
  %6 = alloca i32, align 4
  %7 = alloca ptr, align 8
  %8 = alloca i32, align 4
  store i32 %0, ptr %5, align 4, !tbaa !12
  store i32 %1, ptr %6, align 4, !tbaa !12
  store ptr %2, ptr %7, align 8, !tbaa !8
  store i32 %3, ptr %8, align 4, !tbaa !12
  %9 = load i32, ptr %5, align 4, !tbaa !12
  %10 = load i32, ptr %6, align 4, !tbaa !12
  %11 = add nsw i32 %9, %10
  ret i32 %11
}

; Function Attrs: nounwind uwtable
define internal i32 @x509_get_crl_ext(ptr noundef %0, ptr noundef %1, ptr noundef %2) #0 {
  %4 = alloca i32, align 4
  %5 = alloca ptr, align 8
  %6 = alloca ptr, align 8
  %7 = alloca ptr, align 8
  %8 = alloca i32, align 4
  %9 = alloca i32, align 4
  %10 = alloca i32, align 4
  %11 = alloca ptr, align 8
  %12 = alloca i64, align 8
  store ptr %0, ptr %5, align 8, !tbaa !42
  store ptr %1, ptr %6, align 8, !tbaa !8
  store ptr %2, ptr %7, align 8, !tbaa !52
  call void @llvm.lifetime.start.p0(i64 4, ptr %8) #9
  store i32 -110, ptr %8, align 4, !tbaa !12
  %13 = load ptr, ptr %5, align 8, !tbaa !42
  %14 = load ptr, ptr %13, align 8, !tbaa !8
  %15 = load ptr, ptr %6, align 8, !tbaa !8
  %16 = icmp eq ptr %14, %15
  br i1 %16, label %17, label %18

17:                                               ; preds = %3
  store i32 0, ptr %4, align 4
  store i32 1, ptr %9, align 4
  br label %110

18:                                               ; preds = %3
  %19 = load ptr, ptr %5, align 8, !tbaa !42
  %20 = load ptr, ptr %6, align 8, !tbaa !8
  %21 = load ptr, ptr %7, align 8, !tbaa !52
  %22 = call i32 @mbedtls_x509_get_ext(ptr noundef %19, ptr noundef %20, ptr noundef %21, i32 noundef 0)
  store i32 %22, ptr %8, align 4, !tbaa !12
  %23 = icmp ne i32 %22, 0
  br i1 %23, label %24, label %26

24:                                               ; preds = %18
  %25 = load i32, ptr %8, align 4, !tbaa !12
  store i32 %25, ptr %4, align 4
  store i32 1, ptr %9, align 4
  br label %110

26:                                               ; preds = %18
  %27 = load ptr, ptr %7, align 8, !tbaa !52
  %28 = getelementptr inbounds nuw %struct.mbedtls_asn1_buf, ptr %27, i32 0, i32 2
  %29 = load ptr, ptr %28, align 8, !tbaa !34
  %30 = load ptr, ptr %7, align 8, !tbaa !52
  %31 = getelementptr inbounds nuw %struct.mbedtls_asn1_buf, ptr %30, i32 0, i32 1
  %32 = load i64, ptr %31, align 8, !tbaa !32
  %33 = getelementptr inbounds nuw i8, ptr %29, i64 %32
  store ptr %33, ptr %6, align 8, !tbaa !8
  br label %34

34:                                               ; preds = %101, %26
  %35 = load ptr, ptr %5, align 8, !tbaa !42
  %36 = load ptr, ptr %35, align 8, !tbaa !8
  %37 = load ptr, ptr %6, align 8, !tbaa !8
  %38 = icmp ult ptr %36, %37
  br i1 %38, label %39, label %102

39:                                               ; preds = %34
  call void @llvm.lifetime.start.p0(i64 4, ptr %10) #9
  store i32 0, ptr %10, align 4, !tbaa !12
  call void @llvm.lifetime.start.p0(i64 8, ptr %11) #9
  call void @llvm.lifetime.start.p0(i64 8, ptr %12) #9
  %40 = load ptr, ptr %5, align 8, !tbaa !42
  %41 = load ptr, ptr %6, align 8, !tbaa !8
  %42 = call i32 @mbedtls_asn1_get_tag(ptr noundef %40, ptr noundef %41, ptr noundef %12, i32 noundef 48)
  store i32 %42, ptr %8, align 4, !tbaa !12
  %43 = icmp ne i32 %42, 0
  br i1 %43, label %44, label %47

44:                                               ; preds = %39
  %45 = load i32, ptr %8, align 4, !tbaa !12
  %46 = call i32 @mbedtls_error_add(i32 noundef -9472, i32 noundef %45, ptr noundef @.str, i32 noundef 110)
  store i32 %46, ptr %4, align 4
  store i32 1, ptr %9, align 4
  br label %99

47:                                               ; preds = %39
  %48 = load ptr, ptr %5, align 8, !tbaa !42
  %49 = load ptr, ptr %48, align 8, !tbaa !8
  %50 = load i64, ptr %12, align 8, !tbaa !10
  %51 = getelementptr inbounds nuw i8, ptr %49, i64 %50
  store ptr %51, ptr %11, align 8, !tbaa !8
  %52 = load ptr, ptr %5, align 8, !tbaa !42
  %53 = load ptr, ptr %11, align 8, !tbaa !8
  %54 = call i32 @mbedtls_asn1_get_tag(ptr noundef %52, ptr noundef %53, ptr noundef %12, i32 noundef 6)
  store i32 %54, ptr %8, align 4, !tbaa !12
  %55 = icmp ne i32 %54, 0
  br i1 %55, label %56, label %59

56:                                               ; preds = %47
  %57 = load i32, ptr %8, align 4, !tbaa !12
  %58 = call i32 @mbedtls_error_add(i32 noundef -9472, i32 noundef %57, ptr noundef @.str, i32 noundef 118)
  store i32 %58, ptr %4, align 4
  store i32 1, ptr %9, align 4
  br label %99

59:                                               ; preds = %47
  %60 = load i64, ptr %12, align 8, !tbaa !10
  %61 = load ptr, ptr %5, align 8, !tbaa !42
  %62 = load ptr, ptr %61, align 8, !tbaa !8
  %63 = getelementptr inbounds nuw i8, ptr %62, i64 %60
  store ptr %63, ptr %61, align 8, !tbaa !8
  %64 = load ptr, ptr %5, align 8, !tbaa !42
  %65 = load ptr, ptr %11, align 8, !tbaa !8
  %66 = call i32 @mbedtls_asn1_get_bool(ptr noundef %64, ptr noundef %65, ptr noundef %10)
  store i32 %66, ptr %8, align 4, !tbaa !12
  %67 = icmp ne i32 %66, 0
  br i1 %67, label %68, label %74

68:                                               ; preds = %59
  %69 = load i32, ptr %8, align 4, !tbaa !12
  %70 = icmp ne i32 %69, -98
  br i1 %70, label %71, label %74

71:                                               ; preds = %68
  %72 = load i32, ptr %8, align 4, !tbaa !12
  %73 = call i32 @mbedtls_error_add(i32 noundef -9472, i32 noundef %72, ptr noundef @.str, i32 noundef 126)
  store i32 %73, ptr %4, align 4
  store i32 1, ptr %9, align 4
  br label %99

74:                                               ; preds = %68, %59
  %75 = load ptr, ptr %5, align 8, !tbaa !42
  %76 = load ptr, ptr %11, align 8, !tbaa !8
  %77 = call i32 @mbedtls_asn1_get_tag(ptr noundef %75, ptr noundef %76, ptr noundef %12, i32 noundef 4)
  store i32 %77, ptr %8, align 4, !tbaa !12
  %78 = icmp ne i32 %77, 0
  br i1 %78, label %79, label %82

79:                                               ; preds = %74
  %80 = load i32, ptr %8, align 4, !tbaa !12
  %81 = call i32 @mbedtls_error_add(i32 noundef -9472, i32 noundef %80, ptr noundef @.str, i32 noundef 132)
  store i32 %81, ptr %4, align 4
  store i32 1, ptr %9, align 4
  br label %99

82:                                               ; preds = %74
  %83 = load i64, ptr %12, align 8, !tbaa !10
  %84 = load ptr, ptr %5, align 8, !tbaa !42
  %85 = load ptr, ptr %84, align 8, !tbaa !8
  %86 = getelementptr inbounds nuw i8, ptr %85, i64 %83
  store ptr %86, ptr %84, align 8, !tbaa !8
  %87 = load ptr, ptr %5, align 8, !tbaa !42
  %88 = load ptr, ptr %87, align 8, !tbaa !8
  %89 = load ptr, ptr %11, align 8, !tbaa !8
  %90 = icmp ne ptr %88, %89
  br i1 %90, label %91, label %93

91:                                               ; preds = %82
  %92 = call i32 @mbedtls_error_add(i32 noundef -9472, i32 noundef -102, ptr noundef @.str, i32 noundef 139)
  store i32 %92, ptr %4, align 4
  store i32 1, ptr %9, align 4
  br label %99

93:                                               ; preds = %82
  %94 = load i32, ptr %10, align 4, !tbaa !12
  %95 = icmp ne i32 %94, 0
  br i1 %95, label %96, label %98

96:                                               ; preds = %93
  %97 = call i32 @mbedtls_error_add(i32 noundef -9472, i32 noundef -98, ptr noundef @.str, i32 noundef 145)
  store i32 %97, ptr %4, align 4
  store i32 1, ptr %9, align 4
  br label %99

98:                                               ; preds = %93
  store i32 0, ptr %9, align 4
  br label %99

99:                                               ; preds = %98, %96, %91, %79, %71, %56, %44
  call void @llvm.lifetime.end.p0(i64 8, ptr %12) #9
  call void @llvm.lifetime.end.p0(i64 8, ptr %11) #9
  call void @llvm.lifetime.end.p0(i64 4, ptr %10) #9
  %100 = load i32, ptr %9, align 4
  switch i32 %100, label %110 [
    i32 0, label %101
  ]

101:                                              ; preds = %99
  br label %34, !llvm.loop !54

102:                                              ; preds = %34
  %103 = load ptr, ptr %5, align 8, !tbaa !42
  %104 = load ptr, ptr %103, align 8, !tbaa !8
  %105 = load ptr, ptr %6, align 8, !tbaa !8
  %106 = icmp ne ptr %104, %105
  br i1 %106, label %107, label %109

107:                                              ; preds = %102
  %108 = call i32 @mbedtls_error_add(i32 noundef -9472, i32 noundef -102, ptr noundef @.str, i32 noundef 151)
  store i32 %108, ptr %4, align 4
  store i32 1, ptr %9, align 4
  br label %110

109:                                              ; preds = %102
  store i32 0, ptr %4, align 4
  store i32 1, ptr %9, align 4
  br label %110

110:                                              ; preds = %109, %107, %99, %24, %17
  call void @llvm.lifetime.end.p0(i64 4, ptr %8) #9
  %111 = load i32, ptr %4, align 4
  ret i32 %111
}