; Function Attrs: nounwind uwtable
define internal fastcc i32 @x509_get_crl_ext(ptr noundef nonnull %0, ptr noundef %1, ptr noundef %2) unnamed_addr #0 {
  %4 = alloca i32, align 4
  %5 = alloca i64, align 8
  %6 = load ptr, ptr %0, align 8, !tbaa !21
  %7 = icmp eq ptr %6, %1
  br i1 %7, label %47, label %8

8:                                                ; preds = %3
  %9 = tail call i32 @mbedtls_x509_get_ext(ptr noundef nonnull %0, ptr noundef %1, ptr noundef %2, i32 noundef 0) #10
  %.not = icmp eq i32 %9, 0
  br i1 %.not, label %10, label %47

10:                                               ; preds = %8
  %11 = getelementptr inbounds nuw i8, ptr %2, i64 16
  %12 = load ptr, ptr %11, align 8, !tbaa !33
  %13 = getelementptr inbounds nuw i8, ptr %2, i64 8
  %14 = load i64, ptr %13, align 8, !tbaa !31
  %15 = getelementptr inbounds nuw i8, ptr %12, i64 %14
  %16 = load ptr, ptr %0, align 8, !tbaa !21
  %17 = icmp ult ptr %16, %15
  br i1 %17, label %.lr.ph, label %._crit_edge

.lr.ph:                                           ; preds = %10, %45
  call void @llvm.lifetime.start.p0(i64 4, ptr nonnull %4) #10
  store i32 0, ptr %4, align 4, !tbaa !27
  call void @llvm.lifetime.start.p0(i64 8, ptr nonnull %5) #10
  %18 = call i32 @mbedtls_asn1_get_tag(ptr noundef nonnull %0, ptr noundef nonnull %15, ptr noundef nonnull %5, i32 noundef 48) #10
  %.not43 = icmp eq i32 %18, 0
  br i1 %.not43, label %21, label %19

19:                                               ; preds = %.lr.ph
  %20 = add nsw i32 %18, -9472
  br label %.thread

21:                                               ; preds = %.lr.ph
  %22 = load ptr, ptr %0, align 8, !tbaa !21
  %23 = load i64, ptr %5, align 8, !tbaa !24
  %24 = getelementptr inbounds nuw i8, ptr %22, i64 %23
  %25 = call i32 @mbedtls_asn1_get_tag(ptr noundef nonnull %0, ptr noundef %24, ptr noundef nonnull %5, i32 noundef 6) #10
  %.not44 = icmp eq i32 %25, 0
  br i1 %.not44, label %28, label %26

26:                                               ; preds = %21
  %27 = add nsw i32 %25, -9472
  br label %.thread

28:                                               ; preds = %21
  %29 = load i64, ptr %5, align 8, !tbaa !24
  %30 = load ptr, ptr %0, align 8, !tbaa !21
  %31 = getelementptr inbounds nuw i8, ptr %30, i64 %29
  store ptr %31, ptr %0, align 8, !tbaa !21
  %32 = call i32 @mbedtls_asn1_get_bool(ptr noundef nonnull %0, ptr noundef %24, ptr noundef nonnull %4) #10
  switch i32 %32, label %33 [
    i32 -98, label %35
    i32 0, label %35
  ]

33:                                               ; preds = %28
  %34 = add nsw i32 %32, -9472
  br label %.thread

35:                                               ; preds = %28, %28
  %36 = call i32 @mbedtls_asn1_get_tag(ptr noundef nonnull %0, ptr noundef %24, ptr noundef nonnull %5, i32 noundef 4) #10
  %.not45 = icmp eq i32 %36, 0
  br i1 %.not45, label %39, label %37

37:                                               ; preds = %35
  %38 = add nsw i32 %36, -9472
  br label %.thread

39:                                               ; preds = %35
  %40 = load i64, ptr %5, align 8, !tbaa !24
  %41 = load ptr, ptr %0, align 8, !tbaa !21
  %42 = getelementptr inbounds nuw i8, ptr %41, i64 %40
  store ptr %42, ptr %0, align 8, !tbaa !21
  %.not46 = icmp eq ptr %42, %24
  br i1 %.not46, label %43, label %.thread

43:                                               ; preds = %39
  %44 = load i32, ptr %4, align 4, !tbaa !27
  %.not47 = icmp eq i32 %44, 0
  br i1 %.not47, label %45, label %.thread

.thread:                                          ; preds = %39, %43, %19, %26, %33, %37
  %.2.ph = phi i32 [ %38, %37 ], [ %34, %33 ], [ %27, %26 ], [ %20, %19 ], [ -9570, %43 ], [ -9574, %39 ]
  call void @llvm.lifetime.end.p0(i64 8, ptr nonnull %5) #10
  call void @llvm.lifetime.end.p0(i64 4, ptr nonnull %4) #10
  br label %47

45:                                               ; preds = %43
  call void @llvm.lifetime.end.p0(i64 8, ptr nonnull %5) #10
  call void @llvm.lifetime.end.p0(i64 4, ptr nonnull %4) #10
  %46 = icmp ult ptr %24, %15
  br i1 %46, label %.lr.ph, label %._crit_edge, !llvm.loop !46

._crit_edge:                                      ; preds = %45, %10
  %.lcssa = phi ptr [ %16, %10 ], [ %24, %45 ]
  %.not42 = icmp eq ptr %.lcssa, %15
  %spec.select = select i1 %.not42, i32 0, i32 -9574
  br label %47

47:                                               ; preds = %._crit_edge, %.thread, %8, %3
  %.0 = phi i32 [ 0, %3 ], [ %9, %8 ], [ %.2.ph, %.thread ], [ %spec.select, %._crit_edge ]
  ret i32 %.0
}